target datalayout = "e-m:e-p270:32:32-p271:32:32-p272:64:64-i64:64-i128:128-f80:128-n8:16:32:64-S128"
target triple = "x86_64-pc-linux-gnu"

%struct.Gia_Obj_t_ = type <{ i64, i32 }>
%struct.Vec_Int_t_ = type { i32, i32, ptr }
%struct.Gia_Man_t_ = type { ptr, ptr, i32, i32, i32, i32, ptr, ptr, i32, i32, i32, ptr, ptr, %struct.Vec_Int_t_, %struct.Vec_Int_t_, i32, i32, i32, %struct.Vec_Int_t_, ptr, ptr, ptr, i32, i32, i32, i32, ptr, ptr, ptr, ptr, ptr, i32, i32, ptr, i32, ptr, ptr, ptr, ptr, ptr, ptr, ptr, ptr, ptr, ptr, ptr, ptr, ptr, ptr, ptr, ptr, ptr, ptr, %struct.Vec_Int_t_, %struct.Vec_Int_t_, ptr, ptr, ptr, ptr, ptr, ptr, ptr, ptr, ptr, ptr, ptr, ptr, ptr, ptr, ptr, ptr, ptr, ptr, ptr, ptr, ptr, i32, float, float, ptr, ptr, i32, ptr, ptr, ptr, ptr, ptr, ptr, ptr, ptr, ptr, ptr, ptr, ptr, ptr, ptr, ptr, i64, i64, ptr, ptr, i32, i32, i32, i32, i32, i32, i32, i32, i32, i32, i32, i32, ptr, ptr, ptr, ptr, ptr, ptr, ptr, ptr, i32, i32, i32, ptr, i32, i32, ptr, ptr, ptr, ptr, ptr, ptr, i32, i32, ptr, %struct.Vec_Int_t_, %struct.Vec_Int_t_, %struct.Vec_Int_t_, ptr, ptr, ptr }

; Function Attrs: nounwind uwtable
define internal ptr @Gia_ManObj(ptr noundef %0, i32 noundef %1) #0 {
  %3 = alloca ptr, align 8
  %4 = alloca i32, align 4
  store ptr %0, ptr %3, align 8
  store i32 %1, ptr %4, align 4
  %5 = load ptr, ptr %3, align 8
  %6 = getelementptr inbounds %struct.Gia_Man_t_, ptr %5, i32 0, i32 6
  %7 = load ptr, ptr %6, align 8
  %8 = load i32, ptr %4, align 4
  %9 = sext i32 %8 to i64
  %10 = getelementptr inbounds %struct.Gia_Obj_t_, ptr %7, i64 %9
  ret ptr %10
}

; Function Attrs: nounwind uwtable
define internal i32 @Vec_IntEntry(ptr noundef %0, i32 noundef %1) #0 {
  %3 = alloca ptr, align 8
  %4 = alloca i32, align 4
  store ptr %0, ptr %3, align 8
  store i32 %1, ptr %4, align 4
  %5 = load ptr, ptr %3, align 8
  %6 = getelementptr inbounds %struct.Vec_Int_t_, ptr %5, i32 0, i32 2
  %7 = load ptr, ptr %6, align 8
  %8 = load i32, ptr %4, align 4
  %9 = sext i32 %8 to i64
  %10 = getelementptr inbounds i32, ptr %7, i64 %9
  %11 = load i32, ptr %10, align 4
  ret i32 %11
}

; Function Attrs: nounwind uwtable
define internal ptr @Gia_ManCo(ptr noundef %0, i32 noundef %1) #0 {
  %3 = alloca ptr, align 8
  %4 = alloca i32, align 4
  store ptr %0, ptr %3, align 8
  store i32 %1, ptr %4, align 4
  %5 = load ptr, ptr %3, align 8
  %6 = load ptr, ptr %3, align 8
  %7 = getelementptr inbounds %struct.Gia_Man_t_, ptr %6, i32 0, i32 12
  %8 = load ptr, ptr %7, align 8
  %9 = load i32, ptr %4, align 4
  %10 = call i32 @Vec_IntEntry(ptr noundef %8, i32 noundef %9)
  %11 = call ptr @Gia_ManObj(ptr noundef %5, i32 noundef %10)
  ret ptr %11
}

; Function Attrs: nounwind uwtable
define internal ptr @Gia_ManConst0(ptr noundef %0) #0 {
  %2 = alloca ptr, align 8
  store ptr %0, ptr %2, align 8
  %3 = load ptr, ptr %2, align 8
  %4 = getelementptr inbounds %struct.Gia_Man_t_, ptr %3, i32 0, i32 6
  %5 = load ptr, ptr %4, align 8
  ret ptr %5
}

; Function Attrs: nounwind uwtable
define internal ptr @Abc_UtilStrsav(ptr noundef %0) #0 {
  %2 = alloca ptr, align 8
  store ptr %0, ptr %2, align 8
  %3 = load ptr, ptr %2, align 8
  %4 = icmp ne ptr %3, null
  br i1 %4, label %5, label %13

5:                                                ; preds = %1
  %6 = load ptr, ptr %2, align 8
  %7 = call i64 @strlen(ptr noundef %6) #14
  %8 = add i64 %7, 1
  %9 = mul i64 1, %8
  %10 = call noalias ptr @malloc(i64 noundef %9) #12
  %11 = load ptr, ptr %2, align 8
  %12 = call ptr @strcpy(ptr noundef %10, ptr noundef %11) #13
  br label %14

13:                                               ; preds = %1
  br label %14

14:                                               ; preds = %13, %5
  %15 = phi ptr [ %12, %5 ], [ null, %13 ]
  ret ptr %15
}

; Function Attrs: nounwind uwtable
define internal i32 @Gia_ManObjNum(ptr noundef %0) #0 {
  %2 = alloca ptr, align 8
  store ptr %0, ptr %2, align 8
  %3 = load ptr, ptr %2, align 8
  %4 = getelementptr inbounds %struct.Gia_Man_t_, ptr %3, i32 0, i32 4
  %5 = load i32, ptr %4, align 8
  ret i32 %5
}

; Function Attrs: nounwind uwtable
define ptr @Gia_ManDupOutputGroup(ptr noundef %0, i32 noundef %1, i32 noundef %2) #0 {
  %4 = alloca ptr, align 8
  %5 = alloca i32, align 4
  %6 = alloca i32, align 4
  %7 = alloca ptr, align 8
  %8 = alloca ptr, align 8
  %9 = alloca i32, align 4
  store ptr %0, ptr %4, align 8
  store i32 %1, ptr %5, align 4
  store i32 %2, ptr %6, align 4
  %10 = load ptr, ptr %4, align 8
  call void @Gia_ManFillValue(ptr noundef %10)
  %11 = load ptr, ptr %4, align 8
  %12 = call i32 @Gia_ManObjNum(ptr noundef %11)
  %13 = call ptr @Gia_ManStart(i32 noundef %12)
  store ptr %13, ptr %7, align 8
  %14 = load ptr, ptr %4, align 8
  %15 = getelementptr inbounds %struct.Gia_Man_t_, ptr %14, i32 0, i32 0
  %16 = load ptr, ptr %15, align 8
  %17 = call ptr @Abc_UtilStrsav(ptr noundef %16)
  %18 = load ptr, ptr %7, align 8
  %19 = getelementptr inbounds %struct.Gia_Man_t_, ptr %18, i32 0, i32 0
  store ptr %17, ptr %19, align 8
  %20 = load ptr, ptr %4, align 8
  %21 = getelementptr inbounds %struct.Gia_Man_t_, ptr %20, i32 0, i32 1
  %22 = load ptr, ptr %21, align 8
  %23 = call ptr @Abc_UtilStrsav(ptr noundef %22)
  %24 = load ptr, ptr %7, align 8
  %25 = getelementptr inbounds %struct.Gia_Man_t_, ptr %24, i32 0, i32 1
  store ptr %23, ptr %25, align 8
  %26 = load ptr, ptr %4, align 8
  %27 = call ptr @Gia_ManConst0(ptr noundef %26)
  %28 = getelementptr inbounds %struct.Gia_Obj_t_, ptr %27, i32 0, i32 1
  store i32 0, ptr %28, align 4
  %29 = load i32, ptr %5, align 4
  store i32 %29, ptr %9, align 4
  br label %30

30:                                               ; preds = %42, %3
  %31 = load i32, ptr %9, align 4
  %32 = load i32, ptr %6, align 4
  %33 = icmp slt i32 %31, %32
  br i1 %33, label %34, label %45

34:                                               ; preds = %30
  %35 = load ptr, ptr %4, align 8
  %36 = load i32, ptr %9, align 4
  %37 = call ptr @Gia_ManCo(ptr noundef %35, i32 noundef %36)
  store ptr %37, ptr %8, align 8
  %38 = load ptr, ptr %7, align 8
  %39 = load ptr, ptr %4, align 8
  %40 = load ptr, ptr %8, align 8
  %41 = call i32 @Gia_ManDupOrderDfs_rec(ptr noundef %38, ptr noundef %39, ptr noundef %40)
  br label %42

42:                                               ; preds = %34
  %43 = load i32, ptr %9, align 4
  %44 = add nsw i32 %43, 1
  store i32 %44, ptr %9, align 4
  br label %30, !llvm.loop !24

45:                                               ; preds = %30
  %46 = load ptr, ptr %7, align 8
  ret ptr %46
}