; Function Attrs: nounwind uwtable
define ptr @Gia_ManDupOutputGroup(ptr noundef %0, i32 noundef %1, i32 noundef %2) local_unnamed_addr #1 {
  tail call void @Gia_ManFillValue(ptr noundef %0) #29
  %4 = getelementptr i8, ptr %0, i64 24
  %.val = load i32, ptr %4, align 8
  %5 = tail call ptr @Gia_ManStart(i32 noundef %.val) #29
  %6 = load ptr, ptr %0, align 8
  %.not.i = icmp eq ptr %6, null
  br i1 %.not.i, label %Abc_UtilStrsav.exit, label %7

7:                                                ; preds = %3
  %8 = tail call i64 @strlen(ptr noundef nonnull readonly dereferenceable(1) %6) #30
  %9 = add i64 %8, 1
  %10 = tail call noalias ptr @malloc(i64 noundef %9) #27
  %11 = tail call ptr @strcpy(ptr noundef nonnull dereferenceable(1) %10, ptr noundef nonnull readonly dereferenceable(1) %6) #29
  br label %Abc_UtilStrsav.exit

Abc_UtilStrsav.exit:                              ; preds = %3, %7
  %12 = phi ptr [ %10, %7 ], [ null, %3 ]
  store ptr %12, ptr %5, align 8
  %13 = getelementptr inbounds nuw i8, ptr %0, i64 8
  %14 = load ptr, ptr %13, align 8
  %.not.i19 = icmp eq ptr %14, null
  br i1 %.not.i19, label %Abc_UtilStrsav.exit20, label %15

15:                                               ; preds = %Abc_UtilStrsav.exit
  %16 = tail call i64 @strlen(ptr noundef nonnull readonly dereferenceable(1) %14) #30
  %17 = add i64 %16, 1
  %18 = tail call noalias ptr @malloc(i64 noundef %17) #27
  %19 = tail call ptr @strcpy(ptr noundef nonnull dereferenceable(1) %18, ptr noundef nonnull readonly dereferenceable(1) %14) #29
  br label %Abc_UtilStrsav.exit20

Abc_UtilStrsav.exit20:                            ; preds = %Abc_UtilStrsav.exit, %15
  %20 = phi ptr [ %18, %15 ], [ null, %Abc_UtilStrsav.exit ]
  %21 = getelementptr inbounds nuw i8, ptr %5, i64 8
  store ptr %20, ptr %21, align 8
  %22 = getelementptr i8, ptr %0, i64 32
  %.val18 = load ptr, ptr %22, align 8
  %23 = getelementptr inbounds nuw i8, ptr %.val18, i64 8
  store i32 0, ptr %23, align 4
  %24 = icmp slt i32 %1, %2
  br i1 %24, label %.lr.ph, label %._crit_edge

.lr.ph:                                           ; preds = %Abc_UtilStrsav.exit20
  %25 = getelementptr i8, ptr %0, i64 72
  %26 = sext i32 %1 to i64
  br label %27

27:                                               ; preds = %.lr.ph, %27
  %indvars.iv = phi i64 [ %26, %.lr.ph ], [ %indvars.iv.next, %27 ]
  %.val16 = load ptr, ptr %22, align 8
  %.val17 = load ptr, ptr %25, align 8
  %28 = getelementptr i8, ptr %.val17, i64 8
  %.val17.val = load ptr, ptr %28, align 8
  %29 = getelementptr inbounds i32, ptr %.val17.val, i64 %indvars.iv
  %30 = load i32, ptr %29, align 4
  %31 = sext i32 %30 to i64
  %32 = getelementptr inbounds %struct.Gia_Obj_t_, ptr %.val16, i64 %31
  %33 = tail call i32 @Gia_ManDupOrderDfs_rec(ptr noundef nonnull %5, ptr noundef nonnull %0, ptr noundef %32)
  %indvars.iv.next = add nsw i64 %indvars.iv, 1
  %lftr.wideiv = trunc i64 %indvars.iv.next to i32
  %exitcond.not = icmp eq i32 %2, %lftr.wideiv
  br i1 %exitcond.not, label %._crit_edge, label %27, !llvm.loop !23

._crit_edge:                                      ; preds = %27, %Abc_UtilStrsav.exit20
  ret ptr %5
}